target datalayout = "e-m:e-p270:32:32-p271:32:32-p272:64:64-i64:64-i128:128-f80:128-n8:16:32:64-S128"
target triple = "x86_64-unknown-linux-gnu"

@_ZN6icu_7519TransliteratorEntryD1Ev = unnamed_addr alias void (ptr), ptr @_ZN6icu_7519TransliteratorEntryD2Ev

; Function Attrs: mustprogress nounwind uwtable
define internal void @_ZN6icu_75L11deleteEntryEPv(ptr noundef %obj) #0 {
entry:
  %obj.addr = alloca ptr, align 8
  store ptr %obj, ptr %obj.addr, align 8
  %0 = load ptr, ptr %obj.addr, align 8
  %isnull = icmp eq ptr %0, null
  br i1 %isnull, label %delete.end, label %delete.notnull

delete.notnull:                                   ; preds = %entry
  call void @_ZN6icu_7519TransliteratorEntryD1Ev(ptr noundef nonnull align 8 dereferenceable(104) %0) #9
  call void @_ZN6icu_757UMemorydlEPv(ptr noundef %0) #9
  br label %delete.end

delete.end:                                       ; preds = %delete.notnull, %entry
  ret void
}